; Function Attrs: nounwind uwtable
define ptr @l_Lean_Server_FileWorker_handlePlainGoal___lambda__1(ptr noundef %0) #0 {
  %2 = tail call zeroext i8 @l_Array_isEmpty___rarg(ptr noundef %0) #8
  %3 = icmp eq i8 %2, 0
  br i1 %3, label %4, label %26

4:                                                ; preds = %1
  %5 = getelementptr i8, ptr %0, i64 8
  %.val21 = load i64, ptr %5, align 8, !tbaa !12
  %6 = tail call ptr @l_Array_mapMUnsafe_map___at_Lean_Server_FileWorker_handlePlainGoal___spec__1(i64 noundef %.val21, i64 noundef 0, ptr noundef %0)
  %7 = getelementptr i8, ptr %6, i64 8
  %.val = load i64, ptr %7, align 8, !tbaa !12
  %8 = ptrtoint ptr %6 to i64
  %9 = and i64 %8, 1
  %.not23 = icmp eq i64 %9, 0
  br i1 %.not23, label %10, label %lean_inc.exit

10:                                               ; preds = %4
  %.val.i = load i32, ptr %6, align 4, !tbaa !4
  %11 = icmp sgt i32 %.val.i, 0
  br i1 %11, label %12, label %14, !prof !9

12:                                               ; preds = %10
  %13 = add nuw i32 %.val.i, 1
  store i32 %13, ptr %6, align 4, !tbaa !4
  br label %lean_inc.exit

14:                                               ; preds = %10
  %.not.i22 = icmp eq i32 %.val.i, 0
  br i1 %.not.i22, label %lean_inc.exit, label %15

15:                                               ; preds = %14
  tail call void @lean_inc_ref_cold(ptr noundef nonnull %6) #8
  br label %lean_inc.exit

lean_inc.exit:                                    ; preds = %15, %14, %12, %4
  %16 = tail call ptr @l_Array_mapMUnsafe_map___at_Lean_Server_FileWorker_handlePlainGoal___spec__2(i64 noundef %.val, i64 noundef 0, ptr noundef nonnull %6)
  %17 = tail call ptr @lean_array_to_list(ptr noundef %16) #8
  %18 = load ptr, ptr @l_Lean_Server_FileWorker_handlePlainGoal___lambda__1___closed__1, align 8, !tbaa !10
  %19 = tail call ptr @l_String_intercalate(ptr noundef %18, ptr noundef %17) #8
  tail call void @lean_inc_heartbeat() #8
  %20 = tail call noalias ptr @mi_malloc_small(i64 noundef 24) #8
  %21 = icmp eq ptr %20, null
  br i1 %21, label %22, label %lean_alloc_ctor.exit

22:                                               ; preds = %lean_inc.exit
  tail call void @lean_internal_panic_out_of_memory() #9
  unreachable

lean_alloc_ctor.exit:                             ; preds = %lean_inc.exit
  %23 = getelementptr inbounds nuw i8, ptr %20, i64 4
  store i32 1, ptr %20, align 4, !tbaa !4
  store i32 131096, ptr %23, align 4
  %24 = getelementptr inbounds nuw i8, ptr %20, i64 8
  store ptr %19, ptr %24, align 8, !tbaa !10
  %25 = getelementptr inbounds nuw i8, ptr %20, i64 16
  store ptr %6, ptr %25, align 8, !tbaa !10
  br label %37

26:                                               ; preds = %1
  %27 = ptrtoint ptr %0 to i64
  %28 = and i64 %27, 1
  %.not = icmp eq i64 %28, 0
  br i1 %.not, label %29, label %lean_dec.exit

29:                                               ; preds = %26
  %30 = load i32, ptr %0, align 4, !tbaa !4
  %31 = icmp sgt i32 %30, 1
  br i1 %31, label %32, label %34, !prof !9

32:                                               ; preds = %29
  %33 = add nsw i32 %30, -1
  store i32 %33, ptr %0, align 4, !tbaa !4
  br label %lean_dec.exit

34:                                               ; preds = %29
  %.not.i = icmp eq i32 %30, 0
  br i1 %.not.i, label %lean_dec.exit, label %35

35:                                               ; preds = %34
  tail call void @lean_dec_ref_cold(ptr noundef nonnull %0) #8
  br label %lean_dec.exit

lean_dec.exit:                                    ; preds = %35, %34, %32, %26
  %36 = load ptr, ptr @l_Lean_Server_FileWorker_handlePlainGoal___lambda__1___closed__3, align 8, !tbaa !10
  br label %37

37:                                               ; preds = %lean_dec.exit, %lean_alloc_ctor.exit
  %.0 = phi ptr [ %20, %lean_alloc_ctor.exit ], [ %36, %lean_dec.exit ]
  ret ptr %.0
}